target datalayout = "e-m:e-p270:32:32-p271:32:32-p272:64:64-i64:64-i128:128-f80:128-n8:16:32:64-S128"
target triple = "x86_64-pc-linux-gnu"

%struct.wtap_dumper = type { ptr, i32, i32, i32, i32, i8, i64, ptr, ptr, ptr, ptr, ptr, ptr, ptr, ptr, ptr, ptr, ptr, ptr, ptr, i32, i32, i32 }

@.str.15 = private unnamed_addr constant [46 x i8] c"Adding IDBs isn't supported by this file type\00", align 1

; Function Attrs: null_pointer_is_valid sspstrong uwtable
define zeroext i1 @wtap_dump_add_idb(ptr noundef %0, ptr noundef %1, ptr noundef %2, ptr noundef %3) #0 {
  %5 = alloca i1, align 1
  %6 = alloca ptr, align 8
  %7 = alloca ptr, align 8
  %8 = alloca ptr, align 8
  %9 = alloca ptr, align 8
  store ptr %0, ptr %6, align 8
  store ptr %1, ptr %7, align 8
  store ptr %2, ptr %8, align 8
  store ptr %3, ptr %9, align 8
  %10 = load ptr, ptr %6, align 8
  %11 = getelementptr inbounds nuw %struct.wtap_dumper, ptr %10, i32 0, i32 9
  %12 = load ptr, ptr %11, align 8
  %13 = icmp eq ptr %12, null
  br i1 %13, label %14, label %18

14:                                               ; preds = %4
  %15 = load ptr, ptr %8, align 8
  store i32 -24, ptr %15, align 4
  %16 = call noalias ptr @g_strdup(ptr noundef @.str.15)
  %17 = load ptr, ptr %9, align 8
  store ptr %16, ptr %17, align 8
  store i1 false, ptr %5, align 1
  br label %29

18:                                               ; preds = %4
  %19 = load ptr, ptr %8, align 8
  store i32 0, ptr %19, align 4
  %20 = load ptr, ptr %9, align 8
  store ptr null, ptr %20, align 8
  %21 = load ptr, ptr %6, align 8
  %22 = getelementptr inbounds nuw %struct.wtap_dumper, ptr %21, i32 0, i32 9
  %23 = load ptr, ptr %22, align 8
  %24 = load ptr, ptr %6, align 8
  %25 = load ptr, ptr %7, align 8
  %26 = load ptr, ptr %8, align 8
  %27 = load ptr, ptr %9, align 8
  %28 = call zeroext i1 %23(ptr noundef %24, ptr noundef %25, ptr noundef %26, ptr noundef %27)
  store i1 %28, ptr %5, align 1
  br label %29

29:                                               ; preds = %18, %14
  %30 = load i1, ptr %5, align 1
  ret i1 %30
}