; Function Attrs: null_pointer_is_valid sspstrong uwtable
define zeroext i1 @wtap_dump_add_idb(ptr noundef %0, ptr noundef %1, ptr noundef initializes((0, 4)) %2, ptr noundef initializes((0, 8)) %3) local_unnamed_addr #0 {
  %5 = getelementptr inbounds nuw i8, ptr %0, i64 56
  %6 = load ptr, ptr %5, align 8
  %7 = icmp eq ptr %6, null
  br i1 %7, label %8, label %10

8:                                                ; preds = %4
  store i32 -24, ptr %2, align 4
  %9 = tail call noalias ptr @g_strdup(ptr noundef nonnull @.str.15)
  store ptr %9, ptr %3, align 8
  br label %13

10:                                               ; preds = %4
  store i32 0, ptr %2, align 4
  store ptr null, ptr %3, align 8
  %11 = load ptr, ptr %5, align 8
  %12 = tail call zeroext i1 %11(ptr noundef %0, ptr noundef %1, ptr noundef %2, ptr noundef %3)
  br label %13

13:                                               ; preds = %10, %8
  %.0 = phi i1 [ false, %8 ], [ %12, %10 ]
  ret i1 %.0
}